target datalayout = "e-m:e-p270:32:32-p271:32:32-p272:64:64-i64:64-i128:128-f80:128-n8:16:32:64-S128"
target triple = "x86_64-pc-linux-gnu"

%struct.sct_st = type { i32, ptr, i64, ptr, i64, i64, ptr, i64, i8, i8, ptr, i64, i32, i32, i32 }

@.str = private unnamed_addr constant [30 x i8] c"../openssl/crypto/ct/ct_sct.c\00", align 1

; Function Attrs: nounwind uwtable
define i32 @SCT_set1_extensions(ptr noundef %0, ptr noundef %1, i64 noundef %2) #0 {
  %4 = alloca i32, align 4
  %5 = alloca ptr, align 8
  %6 = alloca ptr, align 8
  %7 = alloca i64, align 8
  store ptr %0, ptr %5, align 8, !tbaa !3
  store ptr %1, ptr %6, align 8, !tbaa !23
  store i64 %2, ptr %7, align 8, !tbaa !24
  %8 = load ptr, ptr %5, align 8, !tbaa !3
  %9 = getelementptr inbounds nuw %struct.sct_st, ptr %8, i32 0, i32 6
  %10 = load ptr, ptr %9, align 8, !tbaa !15
  call void @CRYPTO_free(ptr noundef %10, ptr noundef @.str, i32 noundef 149)
  %11 = load ptr, ptr %5, align 8, !tbaa !3
  %12 = getelementptr inbounds nuw %struct.sct_st, ptr %11, i32 0, i32 6
  store ptr null, ptr %12, align 8, !tbaa !15
  %13 = load ptr, ptr %5, align 8, !tbaa !3
  %14 = getelementptr inbounds nuw %struct.sct_st, ptr %13, i32 0, i32 7
  store i64 0, ptr %14, align 8, !tbaa !29
  %15 = load ptr, ptr %5, align 8, !tbaa !3
  %16 = getelementptr inbounds nuw %struct.sct_st, ptr %15, i32 0, i32 14
  store i32 0, ptr %16, align 8, !tbaa !22
  %17 = load ptr, ptr %6, align 8, !tbaa !23
  %18 = icmp ne ptr %17, null
  br i1 %18, label %19, label %37

19:                                               ; preds = %3
  %20 = load i64, ptr %7, align 8, !tbaa !24
  %21 = icmp ugt i64 %20, 0
  br i1 %21, label %22, label %37

22:                                               ; preds = %19
  %23 = load ptr, ptr %6, align 8, !tbaa !23
  %24 = load i64, ptr %7, align 8, !tbaa !24
  %25 = call noalias ptr @CRYPTO_memdup(ptr noundef %23, i64 noundef %24, ptr noundef @.str, i32 noundef 155)
  %26 = load ptr, ptr %5, align 8, !tbaa !3
  %27 = getelementptr inbounds nuw %struct.sct_st, ptr %26, i32 0, i32 6
  store ptr %25, ptr %27, align 8, !tbaa !15
  %28 = load ptr, ptr %5, align 8, !tbaa !3
  %29 = getelementptr inbounds nuw %struct.sct_st, ptr %28, i32 0, i32 6
  %30 = load ptr, ptr %29, align 8, !tbaa !15
  %31 = icmp eq ptr %30, null
  br i1 %31, label %32, label %33

32:                                               ; preds = %22
  store i32 0, ptr %4, align 4
  br label %38

33:                                               ; preds = %22
  %34 = load i64, ptr %7, align 8, !tbaa !24
  %35 = load ptr, ptr %5, align 8, !tbaa !3
  %36 = getelementptr inbounds nuw %struct.sct_st, ptr %35, i32 0, i32 7
  store i64 %34, ptr %36, align 8, !tbaa !29
  br label %37

37:                                               ; preds = %33, %19, %3
  store i32 1, ptr %4, align 4
  br label %38

38:                                               ; preds = %37, %32
  %39 = load i32, ptr %4, align 4
  ret i32 %39
}