; Function Attrs: nounwind uwtable
define range(i32 0, 2) i32 @SCT_set1_extensions(ptr noundef captures(none) initializes((56, 64), (96, 100)) %0, ptr noundef %1, i64 noundef %2) local_unnamed_addr #0 {
  %4 = getelementptr inbounds nuw i8, ptr %0, i64 48
  %5 = load ptr, ptr %4, align 8, !tbaa !13
  tail call void @CRYPTO_free(ptr noundef %5, ptr noundef nonnull @.str, i32 noundef 149) #7
  %6 = getelementptr inbounds nuw i8, ptr %0, i64 56
  %7 = getelementptr inbounds nuw i8, ptr %0, i64 96
  store i32 0, ptr %7, align 8, !tbaa !16
  %8 = icmp ne ptr %1, null
  %9 = icmp ne i64 %2, 0
  %or.cond = and i1 %8, %9
  tail call void @llvm.memset.p0.i64(ptr noundef nonnull align 8 dereferenceable(16) %4, i8 0, i64 16, i1 false)
  br i1 %or.cond, label %10, label %14

10:                                               ; preds = %3
  %11 = tail call noalias ptr @CRYPTO_memdup(ptr noundef nonnull %1, i64 noundef %2, ptr noundef nonnull @.str, i32 noundef 155) #7
  store ptr %11, ptr %4, align 8, !tbaa !13
  %12 = icmp eq ptr %11, null
  br i1 %12, label %14, label %13

13:                                               ; preds = %10
  store i64 %2, ptr %6, align 8, !tbaa !21
  br label %14

14:                                               ; preds = %3, %13, %10
  %.0 = phi i32 [ 0, %10 ], [ 1, %13 ], [ 1, %3 ]
  ret i32 %.0
}